target datalayout = "e-m:e-p270:32:32-p271:32:32-p272:64:64-i64:64-i128:128-f80:128-n8:16:32:64-S128"
target triple = "x86_64-pc-linux-gnu"

%struct.AVFilterContext = type { ptr, ptr, ptr, ptr, ptr, i32, ptr, ptr, i32, ptr, ptr, i32, i32, ptr, ptr, ptr, ptr, i32, ptr, i32, i32 }
%struct.AudioBitScopeContext = type { ptr, i32, i32, %struct.AVRational, ptr, i32, i32, i32, i32, i32, ptr, [64 x i64], ptr }
%struct.AVRational = type { i32, i32 }
%struct.AVFilterFormatsConfig = type { ptr, ptr, ptr, ptr, ptr }
%struct.AVFilterLink = type { ptr, ptr, ptr, ptr, i32, i32, i32, i32, %struct.AVRational, i32, i32, i32, %struct.AVChannelLayout, %struct.AVRational, ptr, i32, %struct.AVFilterFormatsConfig, %struct.AVFilterFormatsConfig }
%struct.AVChannelLayout = type { i32, i32, %union.anon.1, ptr }
%union.anon.1 = type { i64 }

@__const.config_input.fg = private unnamed_addr constant [4 x i8] c"\FF\FF\FF\FF", align 1
@.str.3 = private unnamed_addr constant [3 x i8] c" |\00", align 1

; Function Attrs: nounwind uwtable
define internal i32 @config_input(ptr noundef %0) #1 {
  %2 = alloca i32, align 4
  %3 = alloca ptr, align 8
  %4 = alloca ptr, align 8
  %5 = alloca ptr, align 8
  %6 = alloca i32, align 4
  %7 = alloca ptr, align 8
  %8 = alloca ptr, align 8
  %9 = alloca i32, align 4
  %10 = alloca [4 x i8], align 1
  %11 = alloca ptr, align 8
  store ptr %0, ptr %3, align 8, !tbaa !32
  call void @llvm.lifetime.start.p0(i64 8, ptr %4) #9
  %12 = load ptr, ptr %3, align 8, !tbaa !32
  %13 = getelementptr inbounds nuw %struct.AVFilterLink, ptr %12, i32 0, i32 2
  %14 = load ptr, ptr %13, align 8, !tbaa !42
  store ptr %14, ptr %4, align 8, !tbaa !4
  call void @llvm.lifetime.start.p0(i64 8, ptr %5) #9
  %15 = load ptr, ptr %4, align 8, !tbaa !4
  %16 = getelementptr inbounds nuw %struct.AVFilterContext, ptr %15, i32 0, i32 9
  %17 = load ptr, ptr %16, align 8, !tbaa !9
  store ptr %17, ptr %5, align 8, !tbaa !22
  call void @llvm.lifetime.start.p0(i64 4, ptr %6) #9
  call void @llvm.lifetime.start.p0(i64 8, ptr %7) #9
  call void @llvm.lifetime.start.p0(i64 8, ptr %8) #9
  store ptr null, ptr %8, align 8, !tbaa !48
  %18 = load ptr, ptr %3, align 8, !tbaa !32
  %19 = getelementptr inbounds nuw %struct.AVFilterLink, ptr %18, i32 0, i32 11
  %20 = load i32, ptr %19, align 8, !tbaa !49
  %21 = sext i32 %20 to i64
  %22 = load ptr, ptr %5, align 8, !tbaa !22
  %23 = getelementptr inbounds nuw %struct.AudioBitScopeContext, ptr %22, i32 0, i32 3
  %24 = getelementptr inbounds nuw %struct.AVRational, ptr %23, i32 0, i32 1
  %25 = load i32, ptr %24, align 4, !tbaa !50
  %26 = sext i32 %25 to i64
  %27 = load ptr, ptr %5, align 8, !tbaa !22
  %28 = getelementptr inbounds nuw %struct.AudioBitScopeContext, ptr %27, i32 0, i32 3
  %29 = getelementptr inbounds nuw %struct.AVRational, ptr %28, i32 0, i32 0
  %30 = load i32, ptr %29, align 8, !tbaa !51
  %31 = sext i32 %30 to i64
  %32 = call i64 @av_rescale(i64 noundef %21, i64 noundef %26, i64 noundef %31) #10
  %33 = icmp sgt i64 1, %32
  br i1 %33, label %34, label %35

34:                                               ; preds = %1
  br label %51

35:                                               ; preds = %1
  %36 = load ptr, ptr %3, align 8, !tbaa !32
  %37 = getelementptr inbounds nuw %struct.AVFilterLink, ptr %36, i32 0, i32 11
  %38 = load i32, ptr %37, align 8, !tbaa !49
  %39 = sext i32 %38 to i64
  %40 = load ptr, ptr %5, align 8, !tbaa !22
  %41 = getelementptr inbounds nuw %struct.AudioBitScopeContext, ptr %40, i32 0, i32 3
  %42 = getelementptr inbounds nuw %struct.AVRational, ptr %41, i32 0, i32 1
  %43 = load i32, ptr %42, align 4, !tbaa !50
  %44 = sext i32 %43 to i64
  %45 = load ptr, ptr %5, align 8, !tbaa !22
  %46 = getelementptr inbounds nuw %struct.AudioBitScopeContext, ptr %45, i32 0, i32 3
  %47 = getelementptr inbounds nuw %struct.AVRational, ptr %46, i32 0, i32 0
  %48 = load i32, ptr %47, align 8, !tbaa !51
  %49 = sext i32 %48 to i64
  %50 = call i64 @av_rescale(i64 noundef %39, i64 noundef %44, i64 noundef %49) #10
  br label %51

51:                                               ; preds = %35, %34
  %52 = phi i64 [ 1, %34 ], [ %50, %35 ]
  %53 = trunc i64 %52 to i32
  %54 = load ptr, ptr %5, align 8, !tbaa !22
  %55 = getelementptr inbounds nuw %struct.AudioBitScopeContext, ptr %54, i32 0, i32 7
  store i32 %53, ptr %55, align 8, !tbaa !35
  %56 = load ptr, ptr %3, align 8, !tbaa !32
  %57 = getelementptr inbounds nuw %struct.AVFilterLink, ptr %56, i32 0, i32 12
  %58 = getelementptr inbounds nuw %struct.AVChannelLayout, ptr %57, i32 0, i32 1
  %59 = load i32, ptr %58, align 4, !tbaa !52
  %60 = load ptr, ptr %5, align 8, !tbaa !22
  %61 = getelementptr inbounds nuw %struct.AudioBitScopeContext, ptr %60, i32 0, i32 6
  store i32 %59, ptr %61, align 4, !tbaa !53
  %62 = load ptr, ptr %3, align 8, !tbaa !32
  %63 = getelementptr inbounds nuw %struct.AVFilterLink, ptr %62, i32 0, i32 5
  %64 = load i32, ptr %63, align 4, !tbaa !54
  %65 = icmp eq i32 %64, 6
  %66 = select i1 %65, i32 16, i32 32
  %67 = load ptr, ptr %5, align 8, !tbaa !22
  %68 = getelementptr inbounds nuw %struct.AudioBitScopeContext, ptr %67, i32 0, i32 8
  store i32 %66, ptr %68, align 4, !tbaa !55
  %69 = load ptr, ptr %5, align 8, !tbaa !22
  %70 = getelementptr inbounds nuw %struct.AudioBitScopeContext, ptr %69, i32 0, i32 6
  %71 = load i32, ptr %70, align 4, !tbaa !53
  %72 = sext i32 %71 to i64
  %73 = call ptr @av_malloc_array(i64 noundef %72, i64 noundef 4)
  %74 = load ptr, ptr %5, align 8, !tbaa !22
  %75 = getelementptr inbounds nuw %struct.AudioBitScopeContext, ptr %74, i32 0, i32 10
  store ptr %73, ptr %75, align 8, !tbaa !56
  %76 = load ptr, ptr %5, align 8, !tbaa !22
  %77 = getelementptr inbounds nuw %struct.AudioBitScopeContext, ptr %76, i32 0, i32 10
  %78 = load ptr, ptr %77, align 8, !tbaa !56
  %79 = icmp ne ptr %78, null
  br i1 %79, label %81, label %80

80:                                               ; preds = %51
  store i32 -12, ptr %2, align 4
  store i32 1, ptr %9, align 4
  br label %158

81:                                               ; preds = %51
  %82 = load ptr, ptr %5, align 8, !tbaa !22
  %83 = getelementptr inbounds nuw %struct.AudioBitScopeContext, ptr %82, i32 0, i32 4
  %84 = load ptr, ptr %83, align 8, !tbaa !57
  %85 = call noalias ptr @av_strdup(ptr noundef %84)
  store ptr %85, ptr %7, align 8, !tbaa !48
  %86 = load ptr, ptr %7, align 8, !tbaa !48
  %87 = icmp ne ptr %86, null
  br i1 %87, label %89, label %88

88:                                               ; preds = %81
  store i32 -12, ptr %2, align 4
  store i32 1, ptr %9, align 4
  br label %158

89:                                               ; preds = %81
  store i32 0, ptr %6, align 4, !tbaa !30
  br label %90

90:                                               ; preds = %153, %89
  %91 = load i32, ptr %6, align 4, !tbaa !30
  %92 = load ptr, ptr %5, align 8, !tbaa !22
  %93 = getelementptr inbounds nuw %struct.AudioBitScopeContext, ptr %92, i32 0, i32 6
  %94 = load i32, ptr %93, align 4, !tbaa !53
  %95 = icmp slt i32 %91, %94
  br i1 %95, label %96, label %156

96:                                               ; preds = %90
  call void @llvm.lifetime.start.p0(i64 4, ptr %10) #9
  call void @llvm.memcpy.p0.p0.i64(ptr align 1 %10, ptr align 1 @__const.config_input.fg, i64 4, i1 false)
  call void @llvm.lifetime.start.p0(i64 8, ptr %11) #9
  %97 = load i32, ptr %6, align 4, !tbaa !30
  %98 = icmp eq i32 %97, 0
  br i1 %98, label %99, label %101

99:                                               ; preds = %96
  %100 = load ptr, ptr %7, align 8, !tbaa !48
  br label %102

101:                                              ; preds = %96
  br label %102

102:                                              ; preds = %101, %99
  %103 = phi ptr [ %100, %99 ], [ null, %101 ]
  %104 = call ptr @av_strtok(ptr noundef %103, ptr noundef @.str.3, ptr noundef %8)
  store ptr %104, ptr %11, align 8, !tbaa !48
  %105 = load ptr, ptr %11, align 8, !tbaa !48
  %106 = icmp ne ptr %105, null
  br i1 %106, label %107, label %112

107:                                              ; preds = %102
  %108 = getelementptr inbounds [4 x i8], ptr %10, i64 0, i64 0
  %109 = load ptr, ptr %11, align 8, !tbaa !48
  %110 = load ptr, ptr %4, align 8, !tbaa !4
  %111 = call i32 @av_parse_color(ptr noundef %108, ptr noundef %109, i32 noundef -1, ptr noundef %110)
  br label %112

112:                                              ; preds = %107, %102
  %113 = getelementptr inbounds [4 x i8], ptr %10, i64 0, i64 0
  %114 = load i8, ptr %113, align 1, !tbaa !58
  %115 = load ptr, ptr %5, align 8, !tbaa !22
  %116 = getelementptr inbounds nuw %struct.AudioBitScopeContext, ptr %115, i32 0, i32 10
  %117 = load ptr, ptr %116, align 8, !tbaa !56
  %118 = load i32, ptr %6, align 4, !tbaa !30
  %119 = mul nsw i32 4, %118
  %120 = add nsw i32 %119, 0
  %121 = sext i32 %120 to i64
  %122 = getelementptr inbounds i8, ptr %117, i64 %121
  store i8 %114, ptr %122, align 1, !tbaa !58
  %123 = getelementptr inbounds [4 x i8], ptr %10, i64 0, i64 1
  %124 = load i8, ptr %123, align 1, !tbaa !58
  %125 = load ptr, ptr %5, align 8, !tbaa !22
  %126 = getelementptr inbounds nuw %struct.AudioBitScopeContext, ptr %125, i32 0, i32 10
  %127 = load ptr, ptr %126, align 8, !tbaa !56
  %128 = load i32, ptr %6, align 4, !tbaa !30
  %129 = mul nsw i32 4, %128
  %130 = add nsw i32 %129, 1
  %131 = sext i32 %130 to i64
  %132 = getelementptr inbounds i8, ptr %127, i64 %131
  store i8 %124, ptr %132, align 1, !tbaa !58
  %133 = getelementptr inbounds [4 x i8], ptr %10, i64 0, i64 2
  %134 = load i8, ptr %133, align 1, !tbaa !58
  %135 = load ptr, ptr %5, align 8, !tbaa !22
  %136 = getelementptr inbounds nuw %struct.AudioBitScopeContext, ptr %135, i32 0, i32 10
  %137 = load ptr, ptr %136, align 8, !tbaa !56
  %138 = load i32, ptr %6, align 4, !tbaa !30
  %139 = mul nsw i32 4, %138
  %140 = add nsw i32 %139, 2
  %141 = sext i32 %140 to i64
  %142 = getelementptr inbounds i8, ptr %137, i64 %141
  store i8 %134, ptr %142, align 1, !tbaa !58
  %143 = getelementptr inbounds [4 x i8], ptr %10, i64 0, i64 3
  %144 = load i8, ptr %143, align 1, !tbaa !58
  %145 = load ptr, ptr %5, align 8, !tbaa !22
  %146 = getelementptr inbounds nuw %struct.AudioBitScopeContext, ptr %145, i32 0, i32 10
  %147 = load ptr, ptr %146, align 8, !tbaa !56
  %148 = load i32, ptr %6, align 4, !tbaa !30
  %149 = mul nsw i32 4, %148
  %150 = add nsw i32 %149, 3
  %151 = sext i32 %150 to i64
  %152 = getelementptr inbounds i8, ptr %147, i64 %151
  store i8 %144, ptr %152, align 1, !tbaa !58
  call void @llvm.lifetime.end.p0(i64 8, ptr %11) #9
  call void @llvm.lifetime.end.p0(i64 4, ptr %10) #9
  br label %153

153:                                              ; preds = %112
  %154 = load i32, ptr %6, align 4, !tbaa !30
  %155 = add nsw i32 %154, 1
  store i32 %155, ptr %6, align 4, !tbaa !30
  br label %90, !llvm.loop !59

156:                                              ; preds = %90
  %157 = load ptr, ptr %7, align 8, !tbaa !48
  call void @av_free(ptr noundef %157)
  store i32 0, ptr %2, align 4
  store i32 1, ptr %9, align 4
  br label %158

158:                                              ; preds = %156, %88, %80
  call void @llvm.lifetime.end.p0(i64 8, ptr %8) #9
  call void @llvm.lifetime.end.p0(i64 8, ptr %7) #9
  call void @llvm.lifetime.end.p0(i64 4, ptr %6) #9
  call void @llvm.lifetime.end.p0(i64 8, ptr %5) #9
  call void @llvm.lifetime.end.p0(i64 8, ptr %4) #9
  %159 = load i32, ptr %2, align 4
  ret i32 %159
}