; Function Attrs: nounwind uwtable
define internal range(i32 -12, 1) i32 @config_input(ptr noundef readonly captures(none) %0) #1 {
  %2 = alloca ptr, align 8
  %3 = alloca [4 x i8], align 4
  %4 = getelementptr inbounds nuw i8, ptr %0, i64 16
  %5 = load ptr, ptr %4, align 8, !tbaa !31
  %6 = getelementptr inbounds nuw i8, ptr %5, i64 72
  %7 = load ptr, ptr %6, align 8, !tbaa !4
  call void @llvm.lifetime.start.p0(i64 8, ptr nonnull %2) #8
  store ptr null, ptr %2, align 8, !tbaa !43
  %8 = getelementptr inbounds nuw i8, ptr %0, i64 64
  %9 = load i32, ptr %8, align 8, !tbaa !110
  %10 = sext i32 %9 to i64
  %11 = getelementptr inbounds nuw i8, ptr %7, i64 16
  %12 = getelementptr inbounds nuw i8, ptr %7, i64 20
  %13 = load i32, ptr %12, align 4, !tbaa !111
  %14 = sext i32 %13 to i64
  %15 = load i32, ptr %11, align 8, !tbaa !112
  %16 = sext i32 %15 to i64
  %17 = tail call i64 @av_rescale(i64 noundef %10, i64 noundef %14, i64 noundef %16) #9
  %spec.select41 = tail call i64 @llvm.smax.i64(i64 %17, i64 1)
  %spec.select = trunc i64 %spec.select41 to i32
  %18 = getelementptr inbounds nuw i8, ptr %7, i64 40
  store i32 %spec.select, ptr %18, align 8, !tbaa !26
  %19 = getelementptr inbounds nuw i8, ptr %0, i64 76
  %20 = load i32, ptr %19, align 4, !tbaa !55
  %21 = getelementptr inbounds nuw i8, ptr %7, i64 36
  store i32 %20, ptr %21, align 4, !tbaa !113
  %22 = getelementptr inbounds nuw i8, ptr %0, i64 36
  %23 = load i32, ptr %22, align 4, !tbaa !114
  %24 = icmp eq i32 %23, 6
  %25 = select i1 %24, i32 16, i32 32
  %26 = getelementptr inbounds nuw i8, ptr %7, i64 44
  store i32 %25, ptr %26, align 4, !tbaa !115
  %27 = sext i32 %20 to i64
  %28 = tail call ptr @av_malloc_array(i64 noundef %27, i64 noundef 4) #8
  %29 = getelementptr inbounds nuw i8, ptr %7, i64 56
  store ptr %28, ptr %29, align 8, !tbaa !60
  %.not = icmp eq ptr %28, null
  br i1 %.not, label %65, label %30

30:                                               ; preds = %1
  %31 = getelementptr inbounds nuw i8, ptr %7, i64 24
  %32 = load ptr, ptr %31, align 8, !tbaa !116
  %33 = tail call noalias ptr @av_strdup(ptr noundef %32) #8
  %.not39 = icmp eq ptr %33, null
  br i1 %.not39, label %65, label %.preheader

.preheader:                                       ; preds = %30
  %34 = load i32, ptr %21, align 4, !tbaa !113
  %35 = icmp sgt i32 %34, 0
  br i1 %35, label %.lr.ph, label %._crit_edge

.lr.ph:                                           ; preds = %.preheader
  %36 = getelementptr inbounds nuw i8, ptr %3, i64 1
  %37 = getelementptr inbounds nuw i8, ptr %3, i64 2
  %38 = getelementptr inbounds nuw i8, ptr %3, i64 3
  br label %39

39:                                               ; preds = %.lr.ph, %45
  %indvars.iv = phi i64 [ 0, %.lr.ph ], [ %indvars.iv.next, %45 ]
  call void @llvm.lifetime.start.p0(i64 4, ptr nonnull %3) #8
  store i32 -1, ptr %3, align 4
  %40 = icmp eq i64 %indvars.iv, 0
  %41 = select i1 %40, ptr %33, ptr null
  %42 = call ptr @av_strtok(ptr noundef %41, ptr noundef nonnull @.str.3, ptr noundef nonnull %2) #8
  %.not40 = icmp eq ptr %42, null
  br i1 %.not40, label %45, label %43

43:                                               ; preds = %39
  %44 = call i32 @av_parse_color(ptr noundef nonnull %3, ptr noundef nonnull %42, i32 noundef -1, ptr noundef %5) #8
  br label %45

45:                                               ; preds = %43, %39
  %46 = load i8, ptr %3, align 4, !tbaa !61
  %47 = load ptr, ptr %29, align 8, !tbaa !60
  %48 = shl nsw i64 %indvars.iv, 2
  %49 = getelementptr inbounds nuw i8, ptr %47, i64 %48
  store i8 %46, ptr %49, align 1, !tbaa !61
  %50 = load i8, ptr %36, align 1, !tbaa !61
  %51 = load ptr, ptr %29, align 8, !tbaa !60
  %52 = getelementptr inbounds nuw i8, ptr %51, i64 %48
  %53 = getelementptr inbounds nuw i8, ptr %52, i64 1
  store i8 %50, ptr %53, align 1, !tbaa !61
  %54 = load i8, ptr %37, align 2, !tbaa !61
  %55 = load ptr, ptr %29, align 8, !tbaa !60
  %56 = getelementptr inbounds nuw i8, ptr %55, i64 %48
  %57 = getelementptr inbounds nuw i8, ptr %56, i64 2
  store i8 %54, ptr %57, align 1, !tbaa !61
  %58 = load i8, ptr %38, align 1, !tbaa !61
  %59 = load ptr, ptr %29, align 8, !tbaa !60
  %60 = getelementptr inbounds nuw i8, ptr %59, i64 %48
  %61 = getelementptr inbounds nuw i8, ptr %60, i64 3
  store i8 %58, ptr %61, align 1, !tbaa !61
  call void @llvm.lifetime.end.p0(i64 4, ptr nonnull %3) #8
  %indvars.iv.next = add nuw nsw i64 %indvars.iv, 1
  %62 = load i32, ptr %21, align 4, !tbaa !113
  %63 = sext i32 %62 to i64
  %64 = icmp slt i64 %indvars.iv.next, %63
  br i1 %64, label %39, label %._crit_edge, !llvm.loop !117

._crit_edge:                                      ; preds = %45, %.preheader
  call void @av_free(ptr noundef nonnull %33) #8
  br label %65

65:                                               ; preds = %30, %1, %._crit_edge
  %.0 = phi i32 [ 0, %._crit_edge ], [ -12, %1 ], [ -12, %30 ]
  call void @llvm.lifetime.end.p0(i64 8, ptr nonnull %2) #8
  ret i32 %.0
}